;--------------------------------------------------------
; File Created by C51
; Version 1.0.0 #1170 (Feb 16 2022) (MSVC)
; This file was generated Mon Mar 18 16:35:52 2024
;--------------------------------------------------------
$name EFM8_JDY40_test
$optc51 --model-small
	R_DSEG    segment data
	R_CSEG    segment code
	R_BSEG    segment bit
	R_XSEG    segment xdata
	R_PSEG    segment xdata
	R_ISEG    segment idata
	R_OSEG    segment data overlay
	BIT_BANK  segment data overlay
	R_HOME    segment code
	R_GSINIT  segment code
	R_IXSEG   segment xdata
	R_CONST   segment code
	R_XINIT   segment code
	R_DINIT   segment code

;--------------------------------------------------------
; Public variables in this module
;--------------------------------------------------------
	public _main
	public _SendATCommand
	public _waitms_or_RI1
	public _RXU1
	public _getstr1
	public _getchar1_with_timeout
	public _getchar1
	public _sendstr1
	public _putchar1
	public _UART1_Init
	public _waitms
	public _Timer3us
	public __c51_external_startup
	public _buff
;--------------------------------------------------------
; Special Function Registers
;--------------------------------------------------------
_ACC            DATA 0xe0
_ADC0ASAH       DATA 0xb6
_ADC0ASAL       DATA 0xb5
_ADC0ASCF       DATA 0xa1
_ADC0ASCT       DATA 0xc7
_ADC0CF0        DATA 0xbc
_ADC0CF1        DATA 0xb9
_ADC0CF2        DATA 0xdf
_ADC0CN0        DATA 0xe8
_ADC0CN1        DATA 0xb2
_ADC0CN2        DATA 0xb3
_ADC0GTH        DATA 0xc4
_ADC0GTL        DATA 0xc3
_ADC0H          DATA 0xbe
_ADC0L          DATA 0xbd
_ADC0LTH        DATA 0xc6
_ADC0LTL        DATA 0xc5
_ADC0MX         DATA 0xbb
_B              DATA 0xf0
_CKCON0         DATA 0x8e
_CKCON1         DATA 0xa6
_CLEN0          DATA 0xc6
_CLIE0          DATA 0xc7
_CLIF0          DATA 0xe8
_CLKSEL         DATA 0xa9
_CLOUT0         DATA 0xd1
_CLU0CF         DATA 0xb1
_CLU0FN         DATA 0xaf
_CLU0MX         DATA 0x84
_CLU1CF         DATA 0xb3
_CLU1FN         DATA 0xb2
_CLU1MX         DATA 0x85
_CLU2CF         DATA 0xb6
_CLU2FN         DATA 0xb5
_CLU2MX         DATA 0x91
_CLU3CF         DATA 0xbf
_CLU3FN         DATA 0xbe
_CLU3MX         DATA 0xae
_CMP0CN0        DATA 0x9b
_CMP0CN1        DATA 0x99
_CMP0MD         DATA 0x9d
_CMP0MX         DATA 0x9f
_CMP1CN0        DATA 0xbf
_CMP1CN1        DATA 0xac
_CMP1MD         DATA 0xab
_CMP1MX         DATA 0xaa
_CRC0CN0        DATA 0xce
_CRC0CN1        DATA 0x86
_CRC0CNT        DATA 0xd3
_CRC0DAT        DATA 0xcb
_CRC0FLIP       DATA 0xcf
_CRC0IN         DATA 0xca
_CRC0ST         DATA 0xd2
_DAC0CF0        DATA 0x91
_DAC0CF1        DATA 0x92
_DAC0H          DATA 0x85
_DAC0L          DATA 0x84
_DAC1CF0        DATA 0x93
_DAC1CF1        DATA 0x94
_DAC1H          DATA 0x8a
_DAC1L          DATA 0x89
_DAC2CF0        DATA 0x95
_DAC2CF1        DATA 0x96
_DAC2H          DATA 0x8c
_DAC2L          DATA 0x8b
_DAC3CF0        DATA 0x9a
_DAC3CF1        DATA 0x9c
_DAC3H          DATA 0x8e
_DAC3L          DATA 0x8d
_DACGCF0        DATA 0x88
_DACGCF1        DATA 0x98
_DACGCF2        DATA 0xa2
_DERIVID        DATA 0xad
_DEVICEID       DATA 0xb5
_DPH            DATA 0x83
_DPL            DATA 0x82
_EIE1           DATA 0xe6
_EIE2           DATA 0xf3
_EIP1           DATA 0xbb
_EIP1H          DATA 0xee
_EIP2           DATA 0xed
_EIP2H          DATA 0xf6
_EMI0CN         DATA 0xe7
_FLKEY          DATA 0xb7
_HFO0CAL        DATA 0xc7
_HFO1CAL        DATA 0xd6
_HFOCN          DATA 0xef
_I2C0ADM        DATA 0xff
_I2C0CN0        DATA 0xba
_I2C0DIN        DATA 0xbc
_I2C0DOUT       DATA 0xbb
_I2C0FCN0       DATA 0xad
_I2C0FCN1       DATA 0xab
_I2C0FCT        DATA 0xf5
_I2C0SLAD       DATA 0xbd
_I2C0STAT       DATA 0xb9
_IE             DATA 0xa8
_IP             DATA 0xb8
_IPH            DATA 0xf2
_IT01CF         DATA 0xe4
_LFO0CN         DATA 0xb1
_P0             DATA 0x80
_P0MASK         DATA 0xfe
_P0MAT          DATA 0xfd
_P0MDIN         DATA 0xf1
_P0MDOUT        DATA 0xa4
_P0SKIP         DATA 0xd4
_P1             DATA 0x90
_P1MASK         DATA 0xee
_P1MAT          DATA 0xed
_P1MDIN         DATA 0xf2
_P1MDOUT        DATA 0xa5
_P1SKIP         DATA 0xd5
_P2             DATA 0xa0
_P2MASK         DATA 0xfc
_P2MAT          DATA 0xfb
_P2MDIN         DATA 0xf3
_P2MDOUT        DATA 0xa6
_P2SKIP         DATA 0xcc
_P3             DATA 0xb0
_P3MDIN         DATA 0xf4
_P3MDOUT        DATA 0x9c
_PCA0CENT       DATA 0x9e
_PCA0CLR        DATA 0x9c
_PCA0CN0        DATA 0xd8
_PCA0CPH0       DATA 0xfc
_PCA0CPH1       DATA 0xea
_PCA0CPH2       DATA 0xec
_PCA0CPH3       DATA 0xf5
_PCA0CPH4       DATA 0x85
_PCA0CPH5       DATA 0xde
_PCA0CPL0       DATA 0xfb
_PCA0CPL1       DATA 0xe9
_PCA0CPL2       DATA 0xeb
_PCA0CPL3       DATA 0xf4
_PCA0CPL4       DATA 0x84
_PCA0CPL5       DATA 0xdd
_PCA0CPM0       DATA 0xda
_PCA0CPM1       DATA 0xdb
_PCA0CPM2       DATA 0xdc
_PCA0CPM3       DATA 0xae
_PCA0CPM4       DATA 0xaf
_PCA0CPM5       DATA 0xcc
_PCA0H          DATA 0xfa
_PCA0L          DATA 0xf9
_PCA0MD         DATA 0xd9
_PCA0POL        DATA 0x96
_PCA0PWM        DATA 0xf7
_PCON0          DATA 0x87
_PCON1          DATA 0xcd
_PFE0CN         DATA 0xc1
_PRTDRV         DATA 0xf6
_PSCTL          DATA 0x8f
_PSTAT0         DATA 0xaa
_PSW            DATA 0xd0
_REF0CN         DATA 0xd1
_REG0CN         DATA 0xc9
_REVID          DATA 0xb6
_RSTSRC         DATA 0xef
_SBCON1         DATA 0x94
_SBRLH1         DATA 0x96
_SBRLL1         DATA 0x95
_SBUF           DATA 0x99
_SBUF0          DATA 0x99
_SBUF1          DATA 0x92
_SCON           DATA 0x98
_SCON0          DATA 0x98
_SCON1          DATA 0xc8
_SFRPAGE        DATA 0xa7
_SFRPGCN        DATA 0xbc
_SFRSTACK       DATA 0xd7
_SMB0ADM        DATA 0xd6
_SMB0ADR        DATA 0xd7
_SMB0CF         DATA 0xc1
_SMB0CN0        DATA 0xc0
_SMB0DAT        DATA 0xc2
_SMB0FCN0       DATA 0xc3
_SMB0FCN1       DATA 0xc4
_SMB0FCT        DATA 0xef
_SMB0RXLN       DATA 0xc5
_SMB0TC         DATA 0xac
_SMOD1          DATA 0x93
_SP             DATA 0x81
_SPI0CFG        DATA 0xa1
_SPI0CKR        DATA 0xa2
_SPI0CN0        DATA 0xf8
_SPI0DAT        DATA 0xa3
_SPI0FCN0       DATA 0x9a
_SPI0FCN1       DATA 0x9b
_SPI0FCT        DATA 0xf7
_SPI0PCF        DATA 0xdf
_TCON           DATA 0x88
_TH0            DATA 0x8c
_TH1            DATA 0x8d
_TL0            DATA 0x8a
_TL1            DATA 0x8b
_TMOD           DATA 0x89
_TMR2CN0        DATA 0xc8
_TMR2CN1        DATA 0xfd
_TMR2H          DATA 0xcf
_TMR2L          DATA 0xce
_TMR2RLH        DATA 0xcb
_TMR2RLL        DATA 0xca
_TMR3CN0        DATA 0x91
_TMR3CN1        DATA 0xfe
_TMR3H          DATA 0x95
_TMR3L          DATA 0x94
_TMR3RLH        DATA 0x93
_TMR3RLL        DATA 0x92
_TMR4CN0        DATA 0x98
_TMR4CN1        DATA 0xff
_TMR4H          DATA 0xa5
_TMR4L          DATA 0xa4
_TMR4RLH        DATA 0xa3
_TMR4RLL        DATA 0xa2
_TMR5CN0        DATA 0xc0
_TMR5CN1        DATA 0xf1
_TMR5H          DATA 0xd5
_TMR5L          DATA 0xd4
_TMR5RLH        DATA 0xd3
_TMR5RLL        DATA 0xd2
_UART0PCF       DATA 0xd9
_UART1FCN0      DATA 0x9d
_UART1FCN1      DATA 0xd8
_UART1FCT       DATA 0xfa
_UART1LIN       DATA 0x9e
_UART1PCF       DATA 0xda
_VDM0CN         DATA 0xff
_WDTCN          DATA 0x97
_XBR0           DATA 0xe1
_XBR1           DATA 0xe2
_XBR2           DATA 0xe3
_XOSC0CN        DATA 0x86
_DPTR           DATA 0x8382
_TMR2RL         DATA 0xcbca
_TMR3RL         DATA 0x9392
_TMR4RL         DATA 0xa3a2
_TMR5RL         DATA 0xd3d2
_TMR0           DATA 0x8c8a
_TMR1           DATA 0x8d8b
_TMR2           DATA 0xcfce
_TMR3           DATA 0x9594
_TMR4           DATA 0xa5a4
_TMR5           DATA 0xd5d4
_SBRL1          DATA 0x9695
_PCA0           DATA 0xfaf9
_PCA0CP0        DATA 0xfcfb
_PCA0CP1        DATA 0xeae9
_PCA0CP2        DATA 0xeceb
_PCA0CP3        DATA 0xf5f4
_PCA0CP4        DATA 0x8584
_PCA0CP5        DATA 0xdedd
_ADC0ASA        DATA 0xb6b5
_ADC0GT         DATA 0xc4c3
_ADC0           DATA 0xbebd
_ADC0LT         DATA 0xc6c5
_DAC0           DATA 0x8584
_DAC1           DATA 0x8a89
_DAC2           DATA 0x8c8b
_DAC3           DATA 0x8e8d
;--------------------------------------------------------
; special function bits
;--------------------------------------------------------
_ACC_0          BIT 0xe0
_ACC_1          BIT 0xe1
_ACC_2          BIT 0xe2
_ACC_3          BIT 0xe3
_ACC_4          BIT 0xe4
_ACC_5          BIT 0xe5
_ACC_6          BIT 0xe6
_ACC_7          BIT 0xe7
_TEMPE          BIT 0xe8
_ADGN0          BIT 0xe9
_ADGN1          BIT 0xea
_ADWINT         BIT 0xeb
_ADBUSY         BIT 0xec
_ADINT          BIT 0xed
_IPOEN          BIT 0xee
_ADEN           BIT 0xef
_B_0            BIT 0xf0
_B_1            BIT 0xf1
_B_2            BIT 0xf2
_B_3            BIT 0xf3
_B_4            BIT 0xf4
_B_5            BIT 0xf5
_B_6            BIT 0xf6
_B_7            BIT 0xf7
_C0FIF          BIT 0xe8
_C0RIF          BIT 0xe9
_C1FIF          BIT 0xea
_C1RIF          BIT 0xeb
_C2FIF          BIT 0xec
_C2RIF          BIT 0xed
_C3FIF          BIT 0xee
_C3RIF          BIT 0xef
_D1SRC0         BIT 0x88
_D1SRC1         BIT 0x89
_D1AMEN         BIT 0x8a
_D01REFSL       BIT 0x8b
_D3SRC0         BIT 0x8c
_D3SRC1         BIT 0x8d
_D3AMEN         BIT 0x8e
_D23REFSL       BIT 0x8f
_D0UDIS         BIT 0x98
_D1UDIS         BIT 0x99
_D2UDIS         BIT 0x9a
_D3UDIS         BIT 0x9b
_EX0            BIT 0xa8
_ET0            BIT 0xa9
_EX1            BIT 0xaa
_ET1            BIT 0xab
_ES0            BIT 0xac
_ET2            BIT 0xad
_ESPI0          BIT 0xae
_EA             BIT 0xaf
_PX0            BIT 0xb8
_PT0            BIT 0xb9
_PX1            BIT 0xba
_PT1            BIT 0xbb
_PS0            BIT 0xbc
_PT2            BIT 0xbd
_PSPI0          BIT 0xbe
_P0_0           BIT 0x80
_P0_1           BIT 0x81
_P0_2           BIT 0x82
_P0_3           BIT 0x83
_P0_4           BIT 0x84
_P0_5           BIT 0x85
_P0_6           BIT 0x86
_P0_7           BIT 0x87
_P1_0           BIT 0x90
_P1_1           BIT 0x91
_P1_2           BIT 0x92
_P1_3           BIT 0x93
_P1_4           BIT 0x94
_P1_5           BIT 0x95
_P1_6           BIT 0x96
_P1_7           BIT 0x97
_P2_0           BIT 0xa0
_P2_1           BIT 0xa1
_P2_2           BIT 0xa2
_P2_3           BIT 0xa3
_P2_4           BIT 0xa4
_P2_5           BIT 0xa5
_P2_6           BIT 0xa6
_P3_0           BIT 0xb0
_P3_1           BIT 0xb1
_P3_2           BIT 0xb2
_P3_3           BIT 0xb3
_P3_4           BIT 0xb4
_P3_7           BIT 0xb7
_CCF0           BIT 0xd8
_CCF1           BIT 0xd9
_CCF2           BIT 0xda
_CCF3           BIT 0xdb
_CCF4           BIT 0xdc
_CCF5           BIT 0xdd
_CR             BIT 0xde
_CF             BIT 0xdf
_PARITY         BIT 0xd0
_F1             BIT 0xd1
_OV             BIT 0xd2
_RS0            BIT 0xd3
_RS1            BIT 0xd4
_F0             BIT 0xd5
_AC             BIT 0xd6
_CY             BIT 0xd7
_RI             BIT 0x98
_TI             BIT 0x99
_RB8            BIT 0x9a
_TB8            BIT 0x9b
_REN            BIT 0x9c
_CE             BIT 0x9d
_SMODE          BIT 0x9e
_RI1            BIT 0xc8
_TI1            BIT 0xc9
_RBX1           BIT 0xca
_TBX1           BIT 0xcb
_REN1           BIT 0xcc
_PERR1          BIT 0xcd
_OVR1           BIT 0xce
_SI             BIT 0xc0
_ACK            BIT 0xc1
_ARBLOST        BIT 0xc2
_ACKRQ          BIT 0xc3
_STO            BIT 0xc4
_STA            BIT 0xc5
_TXMODE         BIT 0xc6
_MASTER         BIT 0xc7
_SPIEN          BIT 0xf8
_TXNF           BIT 0xf9
_NSSMD0         BIT 0xfa
_NSSMD1         BIT 0xfb
_RXOVRN         BIT 0xfc
_MODF           BIT 0xfd
_WCOL           BIT 0xfe
_SPIF           BIT 0xff
_IT0            BIT 0x88
_IE0            BIT 0x89
_IT1            BIT 0x8a
_IE1            BIT 0x8b
_TR0            BIT 0x8c
_TF0            BIT 0x8d
_TR1            BIT 0x8e
_TF1            BIT 0x8f
_T2XCLK0        BIT 0xc8
_T2XCLK1        BIT 0xc9
_TR2            BIT 0xca
_T2SPLIT        BIT 0xcb
_TF2CEN         BIT 0xcc
_TF2LEN         BIT 0xcd
_TF2L           BIT 0xce
_TF2H           BIT 0xcf
_T4XCLK0        BIT 0x98
_T4XCLK1        BIT 0x99
_TR4            BIT 0x9a
_T4SPLIT        BIT 0x9b
_TF4CEN         BIT 0x9c
_TF4LEN         BIT 0x9d
_TF4L           BIT 0x9e
_TF4H           BIT 0x9f
_T5XCLK0        BIT 0xc0
_T5XCLK1        BIT 0xc1
_TR5            BIT 0xc2
_T5SPLIT        BIT 0xc3
_TF5CEN         BIT 0xc4
_TF5LEN         BIT 0xc5
_TF5L           BIT 0xc6
_TF5H           BIT 0xc7
_RIE            BIT 0xd8
_RXTO0          BIT 0xd9
_RXTO1          BIT 0xda
_RFRQ           BIT 0xdb
_TIE            BIT 0xdc
_TXHOLD         BIT 0xdd
_TXNF1          BIT 0xde
_TFRQ           BIT 0xdf
;--------------------------------------------------------
; overlayable register banks
;--------------------------------------------------------
	rbank0 segment data overlay
;--------------------------------------------------------
; internal ram data
;--------------------------------------------------------
	rseg R_DSEG
;--------------------------------------------------------
; overlayable items in internal ram
;--------------------------------------------------------
	rseg	R_OSEG
	rseg	R_OSEG
	rseg	R_OSEG
;--------------------------------------------------------
; indirectly addressable internal ram data
;--------------------------------------------------------
	rseg R_ISEG
_buff:
	ds 20
;--------------------------------------------------------
; absolute internal ram data
;--------------------------------------------------------
	DSEG
;--------------------------------------------------------
; bit data
;--------------------------------------------------------
	rseg R_BSEG
;--------------------------------------------------------
; paged external ram data
;--------------------------------------------------------
	rseg R_PSEG
;--------------------------------------------------------
; external ram data
;--------------------------------------------------------
	rseg R_XSEG
;--------------------------------------------------------
; absolute external ram data
;--------------------------------------------------------
	XSEG
;--------------------------------------------------------
; external initialized ram data
;--------------------------------------------------------
	rseg R_IXSEG
	rseg R_HOME
	rseg R_GSINIT
	rseg R_CSEG
;--------------------------------------------------------
; Reset entry point and interrupt vectors
;--------------------------------------------------------
	CSEG at 0x0000
	ljmp	_crt0
;--------------------------------------------------------
; global & static initialisations
;--------------------------------------------------------
	rseg R_HOME
	rseg R_GSINIT
	rseg R_GSINIT
;--------------------------------------------------------
; data variables initialization
;--------------------------------------------------------
	rseg R_DINIT
	; The linker places a 'ret' at the end of segment R_DINIT.
;--------------------------------------------------------
; code
;--------------------------------------------------------
	rseg R_CSEG
;------------------------------------------------------------
;Allocation info for local variables in function '_c51_external_startup'
;------------------------------------------------------------
;------------------------------------------------------------
;	EFM8_JDY40_test.c:11: char _c51_external_startup (void)
;	-----------------------------------------
;	 function _c51_external_startup
;	-----------------------------------------
__c51_external_startup:
	using	0
;	EFM8_JDY40_test.c:14: SFRPAGE = 0x00;
	mov	_SFRPAGE,#0x00
;	EFM8_JDY40_test.c:15: WDTCN = 0xDE; //First key
	mov	_WDTCN,#0xDE
;	EFM8_JDY40_test.c:16: WDTCN = 0xAD; //Second key
	mov	_WDTCN,#0xAD
;	EFM8_JDY40_test.c:18: VDM0CN=0x80;       // enable VDD monitor
	mov	_VDM0CN,#0x80
;	EFM8_JDY40_test.c:19: RSTSRC=0x02|0x04;  // Enable reset on missing clock detector and VDD
	mov	_RSTSRC,#0x06
;	EFM8_JDY40_test.c:26: SFRPAGE = 0x10;
	mov	_SFRPAGE,#0x10
;	EFM8_JDY40_test.c:27: PFE0CN  = 0x20; // SYSCLK < 75 MHz.
	mov	_PFE0CN,#0x20
;	EFM8_JDY40_test.c:28: SFRPAGE = 0x00;
	mov	_SFRPAGE,#0x00
;	EFM8_JDY40_test.c:49: CLKSEL = 0x00;
	mov	_CLKSEL,#0x00
;	EFM8_JDY40_test.c:50: CLKSEL = 0x00;
	mov	_CLKSEL,#0x00
;	EFM8_JDY40_test.c:51: while ((CLKSEL & 0x80) == 0);
L002001?:
	mov	a,_CLKSEL
	jnb	acc.7,L002001?
;	EFM8_JDY40_test.c:52: CLKSEL = 0x03;
	mov	_CLKSEL,#0x03
;	EFM8_JDY40_test.c:53: CLKSEL = 0x03;
	mov	_CLKSEL,#0x03
;	EFM8_JDY40_test.c:54: while ((CLKSEL & 0x80) == 0);
L002004?:
	mov	a,_CLKSEL
	jnb	acc.7,L002004?
;	EFM8_JDY40_test.c:59: P0MDOUT |= 0x11; // Enable UART0 TX (P0.4) and UART1 TX (P0.0) as push-pull outputs
	orl	_P0MDOUT,#0x11
;	EFM8_JDY40_test.c:60: P2MDOUT |= 0x01; // P2.0 in push-pull mode
	orl	_P2MDOUT,#0x01
;	EFM8_JDY40_test.c:61: XBR0     = 0x01; // Enable UART0 on P0.4(TX) and P0.5(RX)
	mov	_XBR0,#0x01
;	EFM8_JDY40_test.c:62: XBR1     = 0X00;
	mov	_XBR1,#0x00
;	EFM8_JDY40_test.c:63: XBR2     = 0x41; // Enable crossbar and uart 1
	mov	_XBR2,#0x41
;	EFM8_JDY40_test.c:69: SCON0 = 0x10;
	mov	_SCON0,#0x10
;	EFM8_JDY40_test.c:70: TH1 = 0x100-((SYSCLK/BAUDRATE)/(2L*12L));
	mov	_TH1,#0xE6
;	EFM8_JDY40_test.c:71: TL1 = TH1;      // Init Timer1
	mov	_TL1,_TH1
;	EFM8_JDY40_test.c:72: TMOD &= ~0xf0;  // TMOD: timer 1 in 8-bit auto-reload
	anl	_TMOD,#0x0F
;	EFM8_JDY40_test.c:73: TMOD |=  0x20;
	orl	_TMOD,#0x20
;	EFM8_JDY40_test.c:74: TR1 = 1; // START Timer1
	setb	_TR1
;	EFM8_JDY40_test.c:75: TI = 1;  // Indicate TX0 ready
	setb	_TI
;	EFM8_JDY40_test.c:77: return 0;
	mov	dpl,#0x00
	ret
;------------------------------------------------------------
;Allocation info for local variables in function 'Timer3us'
;------------------------------------------------------------
;us                        Allocated to registers r2
;i                         Allocated to registers r3
;------------------------------------------------------------
;	EFM8_JDY40_test.c:81: void Timer3us(unsigned char us)
;	-----------------------------------------
;	 function Timer3us
;	-----------------------------------------
_Timer3us:
	mov	r2,dpl
;	EFM8_JDY40_test.c:86: CKCON0|=0b_0100_0000;
	orl	_CKCON0,#0x40
;	EFM8_JDY40_test.c:88: TMR3RL = (-(SYSCLK)/1000000L); // Set Timer3 to overflow in 1us.
	mov	_TMR3RL,#0xB8
	mov	(_TMR3RL >> 8),#0xFF
;	EFM8_JDY40_test.c:89: TMR3 = TMR3RL;                 // Initialize Timer3 for first overflow
	mov	_TMR3,_TMR3RL
	mov	(_TMR3 >> 8),(_TMR3RL >> 8)
;	EFM8_JDY40_test.c:91: TMR3CN0 = 0x04;                 // Sart Timer3 and clear overflow flag
	mov	_TMR3CN0,#0x04
;	EFM8_JDY40_test.c:92: for (i = 0; i < us; i++)       // Count <us> overflows
	mov	r3,#0x00
L003004?:
	clr	c
	mov	a,r3
	subb	a,r2
	jnc	L003007?
;	EFM8_JDY40_test.c:94: while (!(TMR3CN0 & 0x80));  // Wait for overflow
L003001?:
	mov	a,_TMR3CN0
	jnb	acc.7,L003001?
;	EFM8_JDY40_test.c:95: TMR3CN0 &= ~(0x80);         // Clear overflow indicator
	anl	_TMR3CN0,#0x7F
;	EFM8_JDY40_test.c:92: for (i = 0; i < us; i++)       // Count <us> overflows
	inc	r3
	sjmp	L003004?
L003007?:
;	EFM8_JDY40_test.c:97: TMR3CN0 = 0 ;                   // Stop Timer3 and clear overflow flag
	mov	_TMR3CN0,#0x00
	ret
;------------------------------------------------------------
;Allocation info for local variables in function 'waitms'
;------------------------------------------------------------
;ms                        Allocated to registers r2 r3
;j                         Allocated to registers r4 r5
;k                         Allocated to registers r6
;------------------------------------------------------------
;	EFM8_JDY40_test.c:100: void waitms (unsigned int ms)
;	-----------------------------------------
;	 function waitms
;	-----------------------------------------
_waitms:
	mov	r2,dpl
	mov	r3,dph
;	EFM8_JDY40_test.c:104: for(j=0; j<ms; j++)
	mov	r4,#0x00
	mov	r5,#0x00
L004005?:
	clr	c
	mov	a,r4
	subb	a,r2
	mov	a,r5
	subb	a,r3
	jnc	L004009?
;	EFM8_JDY40_test.c:105: for (k=0; k<4; k++) Timer3us(250);
	mov	r6,#0x00
L004001?:
	cjne	r6,#0x04,L004018?
L004018?:
	jnc	L004007?
	mov	dpl,#0xFA
	push	ar2
	push	ar3
	push	ar4
	push	ar5
	push	ar6
	lcall	_Timer3us
	pop	ar6
	pop	ar5
	pop	ar4
	pop	ar3
	pop	ar2
	inc	r6
	sjmp	L004001?
L004007?:
;	EFM8_JDY40_test.c:104: for(j=0; j<ms; j++)
	inc	r4
	cjne	r4,#0x00,L004005?
	inc	r5
	sjmp	L004005?
L004009?:
	ret
;------------------------------------------------------------
;Allocation info for local variables in function 'UART1_Init'
;------------------------------------------------------------
;baudrate                  Allocated to registers r2 r3 r4 r5
;------------------------------------------------------------
;	EFM8_JDY40_test.c:108: void UART1_Init (unsigned long baudrate)
;	-----------------------------------------
;	 function UART1_Init
;	-----------------------------------------
_UART1_Init:
	mov	r2,dpl
	mov	r3,dph
	mov	r4,b
	mov	r5,a
;	EFM8_JDY40_test.c:110: SFRPAGE = 0x20;
	mov	_SFRPAGE,#0x20
;	EFM8_JDY40_test.c:111: SMOD1 = 0x0C; // no parity, 8 data bits, 1 stop bit
	mov	_SMOD1,#0x0C
;	EFM8_JDY40_test.c:112: SCON1 = 0x10;
	mov	_SCON1,#0x10
;	EFM8_JDY40_test.c:113: SBCON1 =0x00;   // disable baud rate generator
	mov	_SBCON1,#0x00
;	EFM8_JDY40_test.c:114: SBRL1 = 0x10000L-((SYSCLK/baudrate)/(12L*2L));
	mov	__divulong_PARM_2,r2
	mov	(__divulong_PARM_2 + 1),r3
	mov	(__divulong_PARM_2 + 2),r4
	mov	(__divulong_PARM_2 + 3),r5
	mov	dptr,#0xA200
	mov	b,#0x4A
	mov	a,#0x04
	lcall	__divulong
	mov	r2,dpl
	mov	r3,dph
	mov	r4,b
	mov	r5,a
	mov	__divulong_PARM_2,#0x18
	clr	a
	mov	(__divulong_PARM_2 + 1),a
	mov	(__divulong_PARM_2 + 2),a
	mov	(__divulong_PARM_2 + 3),a
	mov	dpl,r2
	mov	dph,r3
	mov	b,r4
	mov	a,r5
	lcall	__divulong
	mov	r2,dpl
	mov	r3,dph
	mov	r4,b
	mov	r5,a
	clr	a
	clr	c
	subb	a,r2
	mov	r2,a
	clr	a
	subb	a,r3
	mov	r3,a
	mov	a,#0x01
	subb	a,r4
	clr	a
	subb	a,r5
	mov	_SBRL1,r2
	mov	(_SBRL1 >> 8),r3
;	EFM8_JDY40_test.c:115: TI1 = 1; // indicate ready for TX
	setb	_TI1
;	EFM8_JDY40_test.c:116: SBCON1 |= 0x40;   // enable baud rate generator
	orl	_SBCON1,#0x40
;	EFM8_JDY40_test.c:117: SFRPAGE = 0x00;
	mov	_SFRPAGE,#0x00
	ret
;------------------------------------------------------------
;Allocation info for local variables in function 'putchar1'
;------------------------------------------------------------
;c                         Allocated to registers r2
;------------------------------------------------------------
;	EFM8_JDY40_test.c:120: void putchar1 (char c)
;	-----------------------------------------
;	 function putchar1
;	-----------------------------------------
_putchar1:
	mov	r2,dpl
;	EFM8_JDY40_test.c:122: SFRPAGE = 0x20;
	mov	_SFRPAGE,#0x20
;	EFM8_JDY40_test.c:123: while (!TI1);
L006001?:
;	EFM8_JDY40_test.c:124: TI1=0;
	jbc	_TI1,L006008?
	sjmp	L006001?
L006008?:
;	EFM8_JDY40_test.c:125: SBUF1 = c;
	mov	_SBUF1,r2
;	EFM8_JDY40_test.c:126: SFRPAGE = 0x00;
	mov	_SFRPAGE,#0x00
	ret
;------------------------------------------------------------
;Allocation info for local variables in function 'sendstr1'
;------------------------------------------------------------
;s                         Allocated to registers r2 r3 r4
;------------------------------------------------------------
;	EFM8_JDY40_test.c:129: void sendstr1 (char * s)
;	-----------------------------------------
;	 function sendstr1
;	-----------------------------------------
_sendstr1:
	mov	r2,dpl
	mov	r3,dph
	mov	r4,b
;	EFM8_JDY40_test.c:131: while(*s)
L007001?:
	mov	dpl,r2
	mov	dph,r3
	mov	b,r4
	lcall	__gptrget
	mov	r5,a
	jz	L007004?
;	EFM8_JDY40_test.c:133: putchar1(*s);
	mov	dpl,r5
	push	ar2
	push	ar3
	push	ar4
	lcall	_putchar1
	pop	ar4
	pop	ar3
	pop	ar2
;	EFM8_JDY40_test.c:134: s++;
	inc	r2
	cjne	r2,#0x00,L007001?
	inc	r3
	sjmp	L007001?
L007004?:
	ret
;------------------------------------------------------------
;Allocation info for local variables in function 'getchar1'
;------------------------------------------------------------
;c                         Allocated to registers
;------------------------------------------------------------
;	EFM8_JDY40_test.c:138: char getchar1 (void)
;	-----------------------------------------
;	 function getchar1
;	-----------------------------------------
_getchar1:
;	EFM8_JDY40_test.c:141: SFRPAGE = 0x20;
	mov	_SFRPAGE,#0x20
;	EFM8_JDY40_test.c:142: while (!RI1);
L008001?:
;	EFM8_JDY40_test.c:143: RI1=0;
	jbc	_RI1,L008008?
	sjmp	L008001?
L008008?:
;	EFM8_JDY40_test.c:145: SCON1&=0b_0011_1111;
	anl	_SCON1,#0x3F
;	EFM8_JDY40_test.c:146: c = SBUF1;
	mov	dpl,_SBUF1
;	EFM8_JDY40_test.c:147: SFRPAGE = 0x00;
	mov	_SFRPAGE,#0x00
;	EFM8_JDY40_test.c:148: return (c);
	ret
;------------------------------------------------------------
;Allocation info for local variables in function 'getchar1_with_timeout'
;------------------------------------------------------------
;c                         Allocated to registers
;timeout                   Allocated to registers r2 r3
;------------------------------------------------------------
;	EFM8_JDY40_test.c:151: char getchar1_with_timeout (void)
;	-----------------------------------------
;	 function getchar1_with_timeout
;	-----------------------------------------
_getchar1_with_timeout:
;	EFM8_JDY40_test.c:155: SFRPAGE = 0x20;
	mov	_SFRPAGE,#0x20
;	EFM8_JDY40_test.c:157: while (!RI1)
	mov	r2,#0x00
	mov	r3,#0x00
L009003?:
	jb	_RI1,L009005?
;	EFM8_JDY40_test.c:159: SFRPAGE = 0x00;
	mov	_SFRPAGE,#0x00
;	EFM8_JDY40_test.c:160: Timer3us(20);
	mov	dpl,#0x14
	push	ar2
	push	ar3
	lcall	_Timer3us
	pop	ar3
	pop	ar2
;	EFM8_JDY40_test.c:161: SFRPAGE = 0x20;
	mov	_SFRPAGE,#0x20
;	EFM8_JDY40_test.c:162: timeout++;
	inc	r2
	cjne	r2,#0x00,L009012?
	inc	r3
L009012?:
;	EFM8_JDY40_test.c:163: if(timeout==25000)
	cjne	r2,#0xA8,L009003?
	cjne	r3,#0x61,L009003?
;	EFM8_JDY40_test.c:165: SFRPAGE = 0x00;
	mov	_SFRPAGE,#0x00
;	EFM8_JDY40_test.c:166: return ('\n'); // Timeout after half second
	mov	dpl,#0x0A
	ret
L009005?:
;	EFM8_JDY40_test.c:169: RI1=0;
	clr	_RI1
;	EFM8_JDY40_test.c:171: SCON1&=0b_0011_1111;
	anl	_SCON1,#0x3F
;	EFM8_JDY40_test.c:172: c = SBUF1;
	mov	dpl,_SBUF1
;	EFM8_JDY40_test.c:173: SFRPAGE = 0x00;
	mov	_SFRPAGE,#0x00
;	EFM8_JDY40_test.c:174: return (c);
	ret
;------------------------------------------------------------
;Allocation info for local variables in function 'getstr1'
;------------------------------------------------------------
;s                         Allocated to registers r2 r3 r4
;c                         Allocated to registers r5
;------------------------------------------------------------
;	EFM8_JDY40_test.c:177: void getstr1 (char * s)
;	-----------------------------------------
;	 function getstr1
;	-----------------------------------------
_getstr1:
	mov	r2,dpl
	mov	r3,dph
	mov	r4,b
;	EFM8_JDY40_test.c:181: while(1)
L010004?:
;	EFM8_JDY40_test.c:183: c=getchar1_with_timeout();
	push	ar2
	push	ar3
	push	ar4
	lcall	_getchar1_with_timeout
	mov	r5,dpl
	pop	ar4
	pop	ar3
	pop	ar2
;	EFM8_JDY40_test.c:184: if(c=='\n')
	cjne	r5,#0x0A,L010002?
;	EFM8_JDY40_test.c:186: *s=0;
	mov	dpl,r2
	mov	dph,r3
	mov	b,r4
	clr	a
;	EFM8_JDY40_test.c:187: return;
	ljmp	__gptrput
L010002?:
;	EFM8_JDY40_test.c:189: *s=c;
	mov	dpl,r2
	mov	dph,r3
	mov	b,r4
	mov	a,r5
	lcall	__gptrput
	inc	dptr
	mov	r2,dpl
	mov	r3,dph
;	EFM8_JDY40_test.c:190: s++;
	sjmp	L010004?
;------------------------------------------------------------
;Allocation info for local variables in function 'RXU1'
;------------------------------------------------------------
;------------------------------------------------------------
;	EFM8_JDY40_test.c:195: bit RXU1 (void)
;	-----------------------------------------
;	 function RXU1
;	-----------------------------------------
_RXU1:
;	EFM8_JDY40_test.c:198: SFRPAGE = 0x20;
	mov	_SFRPAGE,#0x20
;	EFM8_JDY40_test.c:199: mybit=RI1;
	mov	c,_RI1
;	EFM8_JDY40_test.c:200: SFRPAGE = 0x00;
	mov	_SFRPAGE,#0x00
;	EFM8_JDY40_test.c:201: return mybit;
	ret
;------------------------------------------------------------
;Allocation info for local variables in function 'waitms_or_RI1'
;------------------------------------------------------------
;ms                        Allocated to registers r2 r3
;j                         Allocated to registers r4 r5
;k                         Allocated to registers r6
;------------------------------------------------------------
;	EFM8_JDY40_test.c:204: void waitms_or_RI1 (unsigned int ms)
;	-----------------------------------------
;	 function waitms_or_RI1
;	-----------------------------------------
_waitms_or_RI1:
	mov	r2,dpl
	mov	r3,dph
;	EFM8_JDY40_test.c:208: for(j=0; j<ms; j++)
	mov	r4,#0x00
	mov	r5,#0x00
L012007?:
	clr	c
	mov	a,r4
	subb	a,r2
	mov	a,r5
	subb	a,r3
	jnc	L012011?
;	EFM8_JDY40_test.c:210: for (k=0; k<4; k++)
	mov	r6,#0x00
L012003?:
	cjne	r6,#0x04,L012019?
L012019?:
	jnc	L012009?
;	EFM8_JDY40_test.c:212: if(RXU1()) return;
	push	ar2
	push	ar3
	push	ar4
	push	ar5
	push	ar6
	lcall	_RXU1
	clr	a
	rlc	a
	pop	ar6
	pop	ar5
	pop	ar4
	pop	ar3
	pop	ar2
	jz	L012002?
	ret
L012002?:
;	EFM8_JDY40_test.c:213: Timer3us(250);
	mov	dpl,#0xFA
	push	ar2
	push	ar3
	push	ar4
	push	ar5
	push	ar6
	lcall	_Timer3us
	pop	ar6
	pop	ar5
	pop	ar4
	pop	ar3
	pop	ar2
;	EFM8_JDY40_test.c:210: for (k=0; k<4; k++)
	inc	r6
	sjmp	L012003?
L012009?:
;	EFM8_JDY40_test.c:208: for(j=0; j<ms; j++)
	inc	r4
	cjne	r4,#0x00,L012007?
	inc	r5
	sjmp	L012007?
L012011?:
	ret
;------------------------------------------------------------
;Allocation info for local variables in function 'SendATCommand'
;------------------------------------------------------------
;s                         Allocated to registers r2 r3 r4
;------------------------------------------------------------
;	EFM8_JDY40_test.c:218: void SendATCommand (char * s)
;	-----------------------------------------
;	 function SendATCommand
;	-----------------------------------------
_SendATCommand:
	mov	r2,dpl
	mov	r3,dph
	mov	r4,b
;	EFM8_JDY40_test.c:220: printf("Command: %s", s);
	push	ar2
	push	ar3
	push	ar4
	push	ar2
	push	ar3
	push	ar4
	mov	a,#__str_0
	push	acc
	mov	a,#(__str_0 >> 8)
	push	acc
	mov	a,#0x80
	push	acc
	lcall	_printf
	mov	a,sp
	add	a,#0xfa
	mov	sp,a
;	EFM8_JDY40_test.c:221: P2_0=0; // 'set' pin to 0 is 'AT' mode.
	clr	_P2_0
;	EFM8_JDY40_test.c:222: waitms(5);
	mov	dptr,#0x0005
	lcall	_waitms
	pop	ar4
	pop	ar3
	pop	ar2
;	EFM8_JDY40_test.c:223: sendstr1(s);
	mov	dpl,r2
	mov	dph,r3
	mov	b,r4
	lcall	_sendstr1
;	EFM8_JDY40_test.c:224: getstr1(buff);
	mov	dptr,#_buff
	mov	b,#0x40
	lcall	_getstr1
;	EFM8_JDY40_test.c:225: waitms(10);
	mov	dptr,#0x000A
	lcall	_waitms
;	EFM8_JDY40_test.c:226: P2_0=1; // 'set' pin to 1 is normal operation mode.
	setb	_P2_0
;	EFM8_JDY40_test.c:227: printf("Response: %s\r\n", buff);
	mov	a,#_buff
	push	acc
	mov	a,#(_buff >> 8)
	push	acc
	mov	a,#0x40
	push	acc
	mov	a,#__str_1
	push	acc
	mov	a,#(__str_1 >> 8)
	push	acc
	mov	a,#0x80
	push	acc
	lcall	_printf
	mov	a,sp
	add	a,#0xfa
	mov	sp,a
	ret
;------------------------------------------------------------
;Allocation info for local variables in function 'main'
;------------------------------------------------------------
;cnt                       Allocated to registers
;------------------------------------------------------------
;	EFM8_JDY40_test.c:230: void main (void)
;	-----------------------------------------
;	 function main
;	-----------------------------------------
_main:
;	EFM8_JDY40_test.c:234: waitms(500);
	mov	dptr,#0x01F4
	lcall	_waitms
;	EFM8_JDY40_test.c:235: printf("\r\nJDY-40 test\r\n");
	mov	a,#__str_2
	push	acc
	mov	a,#(__str_2 >> 8)
	push	acc
	mov	a,#0x80
	push	acc
	lcall	_printf
	dec	sp
	dec	sp
	dec	sp
;	EFM8_JDY40_test.c:236: UART1_Init(9600);
	mov	dptr,#0x2580
	clr	a
	mov	b,a
	lcall	_UART1_Init
;	EFM8_JDY40_test.c:252: SendATCommand("AT+DVIDAFAF\r\n");
	mov	dptr,#__str_3
	mov	b,#0x80
	lcall	_SendATCommand
;	EFM8_JDY40_test.c:253: SendATCommand("AT+RFIDFFBB\r\n");
	mov	dptr,#__str_4
	mov	b,#0x80
	lcall	_SendATCommand
;	EFM8_JDY40_test.c:255: SendATCommand("AT+VER\r\n");
	mov	dptr,#__str_5
	mov	b,#0x80
	lcall	_SendATCommand
;	EFM8_JDY40_test.c:256: SendATCommand("AT+BAUD\r\n");
	mov	dptr,#__str_6
	mov	b,#0x80
	lcall	_SendATCommand
;	EFM8_JDY40_test.c:257: SendATCommand("AT+RFID\r\n");
	mov	dptr,#__str_7
	mov	b,#0x80
	lcall	_SendATCommand
;	EFM8_JDY40_test.c:258: SendATCommand("AT+DVID\r\n");
	mov	dptr,#__str_8
	mov	b,#0x80
	lcall	_SendATCommand
;	EFM8_JDY40_test.c:259: SendATCommand("AT+RFC\r\n");
	mov	dptr,#__str_9
	mov	b,#0x80
	lcall	_SendATCommand
;	EFM8_JDY40_test.c:260: SendATCommand("AT+POWE\r\n");
	mov	dptr,#__str_10
	mov	b,#0x80
	lcall	_SendATCommand
;	EFM8_JDY40_test.c:261: SendATCommand("AT+CLSS\r\n");
	mov	dptr,#__str_11
	mov	b,#0x80
	lcall	_SendATCommand
;	EFM8_JDY40_test.c:263: printf("\r\Press and hold the BOOT button to transmit.\r\n");
	mov	a,#__str_12
	push	acc
	mov	a,#(__str_12 >> 8)
	push	acc
	mov	a,#0x80
	push	acc
	lcall	_printf
	dec	sp
	dec	sp
	dec	sp
;	EFM8_JDY40_test.c:266: while(1)
	mov	r2,#0x00
	mov	r3,#0x00
L014006?:
;	EFM8_JDY40_test.c:268: if(P3_7==0)
	jb	_P3_7,L014002?
;	EFM8_JDY40_test.c:270: sprintf(buff, "JDY40 test %d\r\n", cnt++);
	mov	ar4,r2
	mov	ar5,r3
	inc	r2
	cjne	r2,#0x00,L014014?
	inc	r3
L014014?:
	push	ar2
	push	ar3
	push	ar4
	push	ar5
	mov	a,#__str_13
	push	acc
	mov	a,#(__str_13 >> 8)
	push	acc
	mov	a,#0x80
	push	acc
	mov	a,#_buff
	push	acc
	mov	a,#(_buff >> 8)
	push	acc
	mov	a,#0x40
	push	acc
	lcall	_sprintf
	mov	a,sp
	add	a,#0xf8
	mov	sp,a
;	EFM8_JDY40_test.c:271: sendstr1(buff);
	mov	dptr,#_buff
	mov	b,#0x40
	lcall	_sendstr1
;	EFM8_JDY40_test.c:272: putchar('.');
	mov	dpl,#0x2E
	lcall	_putchar
;	EFM8_JDY40_test.c:273: waitms_or_RI1(200);
	mov	dptr,#0x00C8
	lcall	_waitms_or_RI1
	pop	ar3
	pop	ar2
L014002?:
;	EFM8_JDY40_test.c:275: if(RXU1())
	push	ar2
	push	ar3
	lcall	_RXU1
	clr	a
	rlc	a
	pop	ar3
	pop	ar2
	jz	L014006?
;	EFM8_JDY40_test.c:277: getstr1(buff);
	mov	dptr,#_buff
	mov	b,#0x40
	push	ar2
	push	ar3
	lcall	_getstr1
;	EFM8_JDY40_test.c:278: printf("RX: %s\r\n", buff);
	mov	a,#_buff
	push	acc
	mov	a,#(_buff >> 8)
	push	acc
	mov	a,#0x40
	push	acc
	mov	a,#__str_14
	push	acc
	mov	a,#(__str_14 >> 8)
	push	acc
	mov	a,#0x80
	push	acc
	lcall	_printf
	mov	a,sp
	add	a,#0xfa
	mov	sp,a
	pop	ar3
	pop	ar2
	ljmp	L014006?
	rseg R_CSEG

	rseg R_XINIT

	rseg R_CONST
__str_0:
	db 'Command: %s'
	db 0x00
__str_1:
	db 'Response: %s'
	db 0x0D
	db 0x0A
	db 0x00
__str_2:
	db 0x0D
	db 0x0A
	db 'JDY-40 test'
	db 0x0D
	db 0x0A
	db 0x00
__str_3:
	db 'AT+DVIDAFAF'
	db 0x0D
	db 0x0A
	db 0x00
__str_4:
	db 'AT+RFIDFFBB'
	db 0x0D
	db 0x0A
	db 0x00
__str_5:
	db 'AT+VER'
	db 0x0D
	db 0x0A
	db 0x00
__str_6:
	db 'AT+BAUD'
	db 0x0D
	db 0x0A
	db 0x00
__str_7:
	db 'AT+RFID'
	db 0x0D
	db 0x0A
	db 0x00
__str_8:
	db 'AT+DVID'
	db 0x0D
	db 0x0A
	db 0x00
__str_9:
	db 'AT+RFC'
	db 0x0D
	db 0x0A
	db 0x00
__str_10:
	db 'AT+POWE'
	db 0x0D
	db 0x0A
	db 0x00
__str_11:
	db 'AT+CLSS'
	db 0x0D
	db 0x0A
	db 0x00
__str_12:
	db 0x0D
	db 'Press and hold the BOOT button to transmit.'
	db 0x0D
	db 0x0A
	db 0x00
__str_13:
	db 'JDY40 test %d'
	db 0x0D
	db 0x0A
	db 0x00
__str_14:
	db 'RX: %s'
	db 0x0D
	db 0x0A
	db 0x00

	CSEG

end
